target datalayout = "e-m:e-p270:32:32-p271:32:32-p272:64:64-i64:64-i128:128-f80:128-n8:16:32:64-S128"
target triple = "x86_64-pc-linux-gnu"

%struct.dirent = type { i64, i64, i16, i8, [256 x i8] }

@.str.10 = private unnamed_addr constant [3 x i8] c"--\00", align 1
@my_exec_path = external global [0 x i8], align 1
@.str.106 = private unnamed_addr constant [13 x i8] c"%s/extension\00", align 1
@.str.107 = private unnamed_addr constant [9 x i8] c".control\00", align 1

; Function Attrs: nounwind uwtable
define internal zeroext i1 @is_extension_control_filename(ptr noundef %0) #0 {
  %2 = alloca ptr, align 8
  %3 = alloca ptr, align 8
  store ptr %0, ptr %2, align 8
  call void @llvm.lifetime.start.p0(i64 8, ptr %3) #12
  %4 = load ptr, ptr %2, align 8
  %5 = call ptr @strrchr(ptr noundef %4, i32 noundef 46) #14
  store ptr %5, ptr %3, align 8
  %6 = load ptr, ptr %3, align 8
  %7 = icmp ne ptr %6, null
  br i1 %7, label %8, label %12

8:                                                ; preds = %1
  %9 = load ptr, ptr %3, align 8
  %10 = call i32 @strcmp(ptr noundef %9, ptr noundef @.str.107) #14
  %11 = icmp eq i32 %10, 0
  br label %12

12:                                               ; preds = %8, %1
  %13 = phi i1 [ false, %1 ], [ %11, %8 ]
  call void @llvm.lifetime.end.p0(i64 8, ptr %3) #12
  ret i1 %13
}

; Function Attrs: nounwind uwtable
define internal ptr @get_extension_control_directory() #0 {
  %1 = alloca [1024 x i8], align 16
  %2 = alloca ptr, align 8
  call void @llvm.lifetime.start.p0(i64 1024, ptr %1) #12
  call void @llvm.lifetime.start.p0(i64 8, ptr %2) #12
  %3 = getelementptr inbounds [1024 x i8], ptr %1, i64 0, i64 0
  call void @get_share_path(ptr noundef @my_exec_path, ptr noundef %3)
  %4 = call ptr @palloc(i64 noundef 1024)
  store ptr %4, ptr %2, align 8
  %5 = load ptr, ptr %2, align 8
  %6 = getelementptr inbounds [1024 x i8], ptr %1, i64 0, i64 0
  %7 = call i32 (ptr, i64, ptr, ...) @pg_snprintf(ptr noundef %5, i64 noundef 1024, ptr noundef @.str.106, ptr noundef %6)
  %8 = load ptr, ptr %2, align 8
  call void @llvm.lifetime.end.p0(i64 8, ptr %2) #12
  call void @llvm.lifetime.end.p0(i64 1024, ptr %1) #12
  ret ptr %8
}

; Function Attrs: nounwind uwtable
define dso_local zeroext i1 @extension_file_exists(ptr noundef %0) #0 {
  %2 = alloca ptr, align 8
  %3 = alloca i8, align 1
  %4 = alloca ptr, align 8
  %5 = alloca ptr, align 8
  %6 = alloca ptr, align 8
  %7 = alloca ptr, align 8
  %8 = alloca i32, align 4
  store ptr %0, ptr %2, align 8
  call void @llvm.lifetime.start.p0(i64 1, ptr %3) #12
  store i8 0, ptr %3, align 1
  call void @llvm.lifetime.start.p0(i64 8, ptr %4) #12
  call void @llvm.lifetime.start.p0(i64 8, ptr %5) #12
  call void @llvm.lifetime.start.p0(i64 8, ptr %6) #12
  %9 = call ptr @get_extension_control_directory()
  store ptr %9, ptr %4, align 8
  %10 = load ptr, ptr %4, align 8
  %11 = call ptr @AllocateDir(ptr noundef %10)
  store ptr %11, ptr %5, align 8
  %12 = load ptr, ptr %5, align 8
  %13 = icmp eq ptr %12, null
  br i1 %13, label %14, label %19

14:                                               ; preds = %1
  %15 = call ptr @__errno_location() #16
  %16 = load i32, ptr %15, align 4
  %17 = icmp eq i32 %16, 2
  br i1 %17, label %18, label %19

18:                                               ; preds = %14
  br label %55

19:                                               ; preds = %14, %1
  br label %20

20:                                               ; preds = %51, %49, %19
  %21 = load ptr, ptr %5, align 8
  %22 = load ptr, ptr %4, align 8
  %23 = call ptr @ReadDir(ptr noundef %21, ptr noundef %22)
  store ptr %23, ptr %6, align 8
  %24 = icmp ne ptr %23, null
  br i1 %24, label %25, label %52

25:                                               ; preds = %20
  call void @llvm.lifetime.start.p0(i64 8, ptr %7) #12
  %26 = load ptr, ptr %6, align 8
  %27 = getelementptr inbounds nuw %struct.dirent, ptr %26, i32 0, i32 4
  %28 = getelementptr inbounds [256 x i8], ptr %27, i64 0, i64 0
  %29 = call zeroext i1 @is_extension_control_filename(ptr noundef %28)
  br i1 %29, label %31, label %30

30:                                               ; preds = %25
  store i32 2, ptr %8, align 4
  br label %49, !llvm.loop !14

31:                                               ; preds = %25
  %32 = load ptr, ptr %6, align 8
  %33 = getelementptr inbounds nuw %struct.dirent, ptr %32, i32 0, i32 4
  %34 = getelementptr inbounds [256 x i8], ptr %33, i64 0, i64 0
  %35 = call ptr @pstrdup(ptr noundef %34)
  store ptr %35, ptr %7, align 8
  %36 = load ptr, ptr %7, align 8
  %37 = call ptr @strrchr(ptr noundef %36, i32 noundef 46) #14
  store i8 0, ptr %37, align 1
  %38 = load ptr, ptr %7, align 8
  %39 = call ptr @strstr(ptr noundef %38, ptr noundef @.str.10) #14
  %40 = icmp ne ptr %39, null
  br i1 %40, label %41, label %42

41:                                               ; preds = %31
  store i32 2, ptr %8, align 4
  br label %49, !llvm.loop !14

42:                                               ; preds = %31
  %43 = load ptr, ptr %7, align 8
  %44 = load ptr, ptr %2, align 8
  %45 = call i32 @strcmp(ptr noundef %43, ptr noundef %44) #14
  %46 = icmp eq i32 %45, 0
  br i1 %46, label %47, label %48

47:                                               ; preds = %42
  store i8 1, ptr %3, align 1
  store i32 3, ptr %8, align 4
  br label %49

48:                                               ; preds = %42
  store i32 0, ptr %8, align 4
  br label %49

49:                                               ; preds = %48, %47, %41, %30
  call void @llvm.lifetime.end.p0(i64 8, ptr %7) #12
  %50 = load i32, ptr %8, align 4
  switch i32 %50, label %58 [
    i32 0, label %51
    i32 2, label %20
    i32 3, label %52
  ]

51:                                               ; preds = %49
  br label %20, !llvm.loop !14

52:                                               ; preds = %49, %20
  %53 = load ptr, ptr %5, align 8
  %54 = call i32 @FreeDir(ptr noundef %53)
  br label %55

55:                                               ; preds = %52, %18
  %56 = load i8, ptr %3, align 1, !range !4, !noundef !5
  %57 = trunc i8 %56 to i1
  store i32 1, ptr %8, align 4
  call void @llvm.lifetime.end.p0(i64 8, ptr %6) #12
  call void @llvm.lifetime.end.p0(i64 8, ptr %5) #12
  call void @llvm.lifetime.end.p0(i64 8, ptr %4) #12
  call void @llvm.lifetime.end.p0(i64 1, ptr %3) #12
  ret i1 %57

58:                                               ; preds = %49
  unreachable
}