; Function Attrs: nounwind uwtable
define dso_local noundef zeroext i1 @extension_file_exists(ptr noundef readonly captures(none) %0) local_unnamed_addr #0 {
  %2 = alloca [1024 x i8], align 16
  call void @llvm.lifetime.start.p0(i64 1024, ptr nonnull %2) #15
  call void @get_share_path(ptr noundef nonnull @my_exec_path, ptr noundef nonnull %2) #15
  %3 = call ptr @palloc(i64 noundef 1024) #15
  %4 = call i32 (ptr, i64, ptr, ...) @pg_snprintf(ptr noundef %3, i64 noundef 1024, ptr noundef nonnull @.str.106, ptr noundef nonnull %2) #15
  call void @llvm.lifetime.end.p0(i64 1024, ptr nonnull %2) #15
  %5 = call ptr @AllocateDir(ptr noundef %3) #15
  %6 = icmp eq ptr %5, null
  br i1 %6, label %7, label %11

7:                                                ; preds = %1
  %8 = tail call ptr @__errno_location() #19
  %9 = load i32, ptr %8, align 4
  %10 = icmp eq i32 %9, 2
  br i1 %10, label %27, label %11

11:                                               ; preds = %7, %1
  %12 = call ptr @ReadDir(ptr noundef %5, ptr noundef %3) #15
  %.not15.not = icmp eq ptr %12, null
  br i1 %.not15.not, label %._crit_edge, label %.lr.ph

.lr.ph:                                           ; preds = %11, %.backedge
  %13 = phi ptr [ %25, %.backedge ], [ %12, %11 ]
  %14 = getelementptr inbounds nuw i8, ptr %13, i64 19
  %15 = call ptr @strrchr(ptr noundef nonnull readonly dereferenceable(1) %14, i32 noundef 46) #17
  %.not.i = icmp eq ptr %15, null
  br i1 %.not.i, label %.backedge, label %is_extension_control_filename.exit

is_extension_control_filename.exit:               ; preds = %.lr.ph
  %16 = call i32 @strcmp(ptr noundef nonnull dereferenceable(1) %15, ptr noundef nonnull dereferenceable(9) @.str.107) #17
  %17 = icmp eq i32 %16, 0
  br i1 %17, label %18, label %.backedge, !llvm.loop !12

18:                                               ; preds = %is_extension_control_filename.exit
  %19 = call ptr @pstrdup(ptr noundef nonnull %14) #15
  %20 = call ptr @strrchr(ptr noundef nonnull dereferenceable(1) %19, i32 noundef 46) #17
  store i8 0, ptr %20, align 1
  %21 = call ptr @strstr(ptr noundef nonnull dereferenceable(1) %19, ptr noundef nonnull dereferenceable(1) @.str.10) #17
  %.not14 = icmp eq ptr %21, null
  br i1 %.not14, label %22, label %.backedge, !llvm.loop !12

22:                                               ; preds = %18
  %23 = call i32 @strcmp(ptr noundef nonnull dereferenceable(1) %19, ptr noundef nonnull dereferenceable(1) %0) #17
  %24 = icmp eq i32 %23, 0
  br i1 %24, label %._crit_edge, label %.backedge

.backedge:                                        ; preds = %is_extension_control_filename.exit, %18, %.lr.ph, %22
  %25 = call ptr @ReadDir(ptr noundef %5, ptr noundef %3) #15
  %.not.not = icmp eq ptr %25, null
  br i1 %.not.not, label %._crit_edge, label %.lr.ph

._crit_edge:                                      ; preds = %.backedge, %22, %11
  %.not.lcssa = phi i1 [ false, %11 ], [ false, %.backedge ], [ true, %22 ]
  %26 = call i32 @FreeDir(ptr noundef %5) #15
  br label %27

27:                                               ; preds = %7, %._crit_edge
  %.012 = phi i1 [ false, %7 ], [ %.not.lcssa, %._crit_edge ]
  ret i1 %.012
}